; Function Attrs: mustprogress uwtable
define hidden void @_ZN4cvc58internal6theory7strings5utils8mkPrefixENS0_12NodeTemplateILb1EEES5_(ptr dead_on_unwind noalias writable sret(%"class.cvc5::internal::NodeTemplate") align 8 %0, ptr noundef readonly captures(none) %1, ptr noundef readonly captures(none) %2) local_unnamed_addr #4 personality ptr @__gxx_personality_v0 {
  %4 = alloca %"class.cvc5::internal::NodeBuilder", align 8
  %5 = alloca %"class.cvc5::internal::NodeTemplate.94", align 8
  %6 = alloca %"class.cvc5::internal::NodeTemplate.94", align 8
  %7 = alloca %"class.cvc5::internal::NodeTemplate.94", align 8
  %8 = alloca %"class.cvc5::internal::NodeTemplate", align 8
  %9 = alloca %"class.cvc5::internal::Rational", align 8
  %10 = tail call noundef ptr @_ZN4cvc58internal11NodeManager9currentNMEv()
  %11 = load ptr, ptr %1, align 8, !tbaa !8
  call void @llvm.lifetime.start.p0(i64 8, ptr nonnull %8) #23
  call void @llvm.lifetime.start.p0(i64 32, ptr nonnull %9) #23
  call void @_ZN4cvc58internal8RationalC2Ei(ptr noundef nonnull align 8 dereferenceable(32) %9, i32 noundef 0)
  invoke void @_ZN4cvc58internal11NodeManager10mkConstIntERKNS0_8RationalE(ptr dead_on_unwind nonnull writable sret(%"class.cvc5::internal::NodeTemplate") align 8 %8, ptr noundef nonnull align 8 dereferenceable(3560) %10, ptr noundef nonnull align 8 dereferenceable(32) %9)
          to label %12 unwind label %49

12:                                               ; preds = %3
  %13 = load ptr, ptr %8, align 8, !tbaa !8
  %14 = load ptr, ptr %2, align 8, !tbaa !8
  call void @llvm.lifetime.start.p0(i64 8, ptr nonnull %5)
  call void @llvm.lifetime.start.p0(i64 8, ptr nonnull %6)
  call void @llvm.lifetime.start.p0(i64 8, ptr nonnull %7)
  call void @llvm.lifetime.start.p0(i64 128, ptr nonnull %4) #23, !noalias !80
  %15 = getelementptr inbounds nuw i8, ptr %11, i64 16
  %16 = load ptr, ptr %15, align 8, !tbaa !73, !noalias !80
  invoke void @_ZN4cvc58internal11NodeBuilderC1EPNS0_11NodeManagerENS0_4kind6Kind_tE(ptr noundef nonnull align 8 dereferenceable(124) %4, ptr noundef %16, i32 noundef 318)
          to label %.noexc unwind label %51

.noexc:                                           ; preds = %12
  store ptr %11, ptr %5, align 8, !tbaa !23, !noalias !80
  %17 = invoke noundef nonnull align 8 dereferenceable(124) ptr @_ZN4cvc58internal11NodeBuilderlsENS0_12NodeTemplateILb0EEE(ptr noundef nonnull align 8 dereferenceable(124) %4, ptr noundef nonnull %5)
          to label %18 unwind label %25, !noalias !80

18:                                               ; preds = %.noexc
  store ptr %13, ptr %6, align 8, !tbaa !23, !noalias !80
  %19 = invoke noundef nonnull align 8 dereferenceable(124) ptr @_ZN4cvc58internal11NodeBuilderlsENS0_12NodeTemplateILb0EEE(ptr noundef nonnull align 8 dereferenceable(124) %17, ptr noundef nonnull %6)
          to label %20 unwind label %27, !noalias !80

20:                                               ; preds = %18
  store ptr %14, ptr %7, align 8, !tbaa !23, !noalias !80
  %21 = invoke noundef nonnull align 8 dereferenceable(124) ptr @_ZN4cvc58internal11NodeBuilderlsENS0_12NodeTemplateILb0EEE(ptr noundef nonnull align 8 dereferenceable(124) %19, ptr noundef nonnull %7)
          to label %22 unwind label %29, !noalias !80

22:                                               ; preds = %20
  invoke void @_ZN4cvc58internal11NodeBuilder13constructNodeEv(ptr dead_on_unwind writable sret(%"class.cvc5::internal::NodeTemplate") align 8 %0, ptr noundef nonnull align 8 dereferenceable(124) %4)
          to label %32 unwind label %23

23:                                               ; preds = %22
  %24 = landingpad { ptr, i32 }
          cleanup
  br label %31

25:                                               ; preds = %.noexc
  %26 = landingpad { ptr, i32 }
          cleanup
  br label %31

27:                                               ; preds = %18
  %28 = landingpad { ptr, i32 }
          cleanup
  br label %31

29:                                               ; preds = %20
  %30 = landingpad { ptr, i32 }
          cleanup
  br label %31

31:                                               ; preds = %29, %27, %25, %23
  %.pn7.i = phi { ptr, i32 } [ %24, %23 ], [ %26, %25 ], [ %30, %29 ], [ %28, %27 ]
  call void @_ZN4cvc58internal11NodeBuilderD1Ev(ptr noundef nonnull align 8 dereferenceable(124) %4) #23
  call void @llvm.lifetime.end.p0(i64 128, ptr nonnull %4) #23, !noalias !80
  br label %.body

32:                                               ; preds = %22
  call void @_ZN4cvc58internal11NodeBuilderD1Ev(ptr noundef nonnull align 8 dereferenceable(124) %4) #23
  call void @llvm.lifetime.end.p0(i64 128, ptr nonnull %4) #23, !noalias !80
  call void @llvm.lifetime.end.p0(i64 8, ptr nonnull %5)
  call void @llvm.lifetime.end.p0(i64 8, ptr nonnull %6)
  call void @llvm.lifetime.end.p0(i64 8, ptr nonnull %7)
  %33 = load ptr, ptr %8, align 8, !tbaa !8
  %34 = load i64, ptr %33, align 8
  %35 = and i64 %34, 1152920405095219200
  %.not.i.i = icmp eq i64 %35, 1152920405095219200
  br i1 %.not.i.i, label %_ZN4cvc58internal12NodeTemplateILb1EED2Ev.exit, label %36, !prof !16

36:                                               ; preds = %32
  %37 = add i64 %34, 1152920405095219200
  %38 = and i64 %37, 1152920405095219200
  %39 = and i64 %34, -1152920405095219201
  %40 = or disjoint i64 %38, %39
  store i64 %40, ptr %33, align 8
  %41 = icmp eq i64 %38, 0
  br i1 %41, label %42, label %_ZN4cvc58internal12NodeTemplateILb1EED2Ev.exit, !prof !16

42:                                               ; preds = %36
  invoke void @_ZN4cvc58internal4expr9NodeValue15markForDeletionEv(ptr noundef nonnull align 8 dereferenceable(24) %33)
          to label %_ZN4cvc58internal12NodeTemplateILb1EED2Ev.exit unwind label %43

43:                                               ; preds = %42
  %44 = landingpad { ptr, i32 }
          catch ptr null
  %45 = extractvalue { ptr, i32 } %44, 0
  call void @__clang_call_terminate(ptr %45) #24
  unreachable

_ZN4cvc58internal12NodeTemplateILb1EED2Ev.exit:   ; preds = %32, %36, %42
  invoke void @__gmpq_clear(ptr noundef nonnull align 8 dereferenceable(32) %9)
          to label %_ZN4cvc58internal8RationalD2Ev.exit unwind label %46

46:                                               ; preds = %_ZN4cvc58internal12NodeTemplateILb1EED2Ev.exit
  %47 = landingpad { ptr, i32 }
          catch ptr null
  %48 = extractvalue { ptr, i32 } %47, 0
  call void @__clang_call_terminate(ptr %48) #24
  unreachable

_ZN4cvc58internal8RationalD2Ev.exit:              ; preds = %_ZN4cvc58internal12NodeTemplateILb1EED2Ev.exit
  call void @llvm.lifetime.end.p0(i64 32, ptr nonnull %9) #23
  call void @llvm.lifetime.end.p0(i64 8, ptr nonnull %8) #23
  ret void

49:                                               ; preds = %3
  %50 = landingpad { ptr, i32 }
          cleanup
  br label %53

51:                                               ; preds = %12
  %52 = landingpad { ptr, i32 }
          cleanup
  br label %.body

.body:                                            ; preds = %31, %51
  %eh.lpad-body = phi { ptr, i32 } [ %52, %51 ], [ %.pn7.i, %31 ]
  call void @_ZN4cvc58internal12NodeTemplateILb1EED2Ev(ptr noundef nonnull align 8 dereferenceable(8) %8) #23
  br label %53

53:                                               ; preds = %.body, %49
  %.pn = phi { ptr, i32 } [ %eh.lpad-body, %.body ], [ %50, %49 ]
  invoke void @__gmpq_clear(ptr noundef nonnull align 8 dereferenceable(32) %9)
          to label %_ZN4cvc58internal8RationalD2Ev.exit6 unwind label %54

54:                                               ; preds = %53
  %55 = landingpad { ptr, i32 }
          catch ptr null
  %56 = extractvalue { ptr, i32 } %55, 0
  call void @__clang_call_terminate(ptr %56) #24
  unreachable

_ZN4cvc58internal8RationalD2Ev.exit6:             ; preds = %53
  call void @llvm.lifetime.end.p0(i64 32, ptr nonnull %9) #23
  call void @llvm.lifetime.end.p0(i64 8, ptr nonnull %8) #23
  resume { ptr, i32 } %.pn
}